	.file	"qsort.c"
	.option nopic
	.attribute arch, "rv32i2p0"
	.attribute unaligned_access, 0
	.attribute stack_align, 16
	.text
.Ltext0:
	.cfi_sections	.debug_frame
	.file 0 "/home/ubuntu/SoCLab/lab-wlos_baseline/testbench/counter_la_qs" "qsort.c"
	.globl	A
	.data
	.align	2
	.type	A, @object
	.size	A, 40
A:
	.word	893
	.word	40
	.word	3233
	.word	4267
	.word	2669
	.word	2541
	.word	9073
	.word	6023
	.word	5681
	.word	4622
	.text
	.align	2
	.type	flush_cpu_icache, @function
flush_cpu_icache:
.LFB21:
	.file 1 "../../firmware/system.h"
	.loc 1 15 1
	.cfi_startproc
	addi	sp,sp,-16
	.cfi_def_cfa_offset 16
	sw	s0,12(sp)
	.cfi_offset 8, -4
	addi	s0,sp,16
	.cfi_def_cfa 8, 0
	.loc 1 26 1
	nop
	lw	s0,12(sp)
	.cfi_restore 8
	.cfi_def_cfa 2, 16
	addi	sp,sp,16
	.cfi_def_cfa_offset 0
	jr	ra
	.cfi_endproc
.LFE21:
	.size	flush_cpu_icache, .-flush_cpu_icache
	.align	2
	.type	flush_cpu_dcache, @function
flush_cpu_dcache:
.LFB22:
	.loc 1 29 1
	.cfi_startproc
	addi	sp,sp,-16
	.cfi_def_cfa_offset 16
	sw	s0,12(sp)
	.cfi_offset 8, -4
	addi	s0,sp,16
	.cfi_def_cfa 8, 0
	.loc 1 33 1
	nop
	lw	s0,12(sp)
	.cfi_restore 8
	.cfi_def_cfa 2, 16
	addi	sp,sp,16
	.cfi_def_cfa_offset 0
	jr	ra
	.cfi_endproc
.LFE22:
	.size	flush_cpu_dcache, .-flush_cpu_dcache
	.section	.mprjram,"ax",@progbits
	.align	2
	.globl	partition
	.type	partition, @function
partition:
.LFB316:
	.file 2 "qsort.c"
	.loc 2 3 75
	.cfi_startproc
	addi	sp,sp,-48
	.cfi_def_cfa_offset 48
	sw	s0,44(sp)
	.cfi_offset 8, -4
	addi	s0,sp,48
	.cfi_def_cfa 8, 0
	sw	a0,-36(s0)
	sw	a1,-40(s0)
	.loc 2 4 3
	li	a5,637534208
	addi	a5,a5,12
	.loc 2 4 36
	li	a4,-1416495104
	sw	a4,0(a5)
	.loc 2 5 6
	lui	a5,%hi(A)
	addi	a4,a5,%lo(A)
	lw	a5,-40(s0)
	slli	a5,a5,2
	add	a5,a4,a5
	lw	a5,0(a5)
	sw	a5,-28(s0)
	.loc 2 6 6
	lw	a5,-36(s0)
	addi	a5,a5,-1
	sw	a5,-20(s0)
	.loc 2 8 8
	lw	a5,-36(s0)
	sw	a5,-24(s0)
	.loc 2 8 2
	j	.L4
.L6:
	.loc 2 9 7
	lui	a5,%hi(A)
	addi	a4,a5,%lo(A)
	lw	a5,-24(s0)
	slli	a5,a5,2
	add	a5,a4,a5
	lw	a5,0(a5)
	.loc 2 9 5
	lw	a4,-28(s0)
	ble	a4,a5,.L5
	.loc 2 10 6
	lw	a5,-20(s0)
	addi	a5,a5,1
	sw	a5,-20(s0)
	.loc 2 11 9
	lui	a5,%hi(A)
	addi	a4,a5,%lo(A)
	lw	a5,-20(s0)
	slli	a5,a5,2
	add	a5,a4,a5
	lw	a5,0(a5)
	sw	a5,-32(s0)
	.loc 2 12 12
	lui	a5,%hi(A)
	addi	a4,a5,%lo(A)
	lw	a5,-24(s0)
	slli	a5,a5,2
	add	a5,a4,a5
	lw	a4,0(a5)
	.loc 2 12 9
	lui	a5,%hi(A)
	addi	a3,a5,%lo(A)
	lw	a5,-20(s0)
	slli	a5,a5,2
	add	a5,a3,a5
	sw	a4,0(a5)
	.loc 2 13 9
	lui	a5,%hi(A)
	addi	a4,a5,%lo(A)
	lw	a5,-24(s0)
	slli	a5,a5,2
	add	a5,a4,a5
	lw	a4,-32(s0)
	sw	a4,0(a5)
.L5:
	.loc 2 8 20 discriminator 2
	lw	a5,-24(s0)
	addi	a5,a5,1
	sw	a5,-24(s0)
.L4:
	.loc 2 8 15 discriminator 1
	lw	a4,-24(s0)
	lw	a5,-40(s0)
	blt	a4,a5,.L6
	.loc 2 16 6
	lui	a5,%hi(A)
	addi	a4,a5,%lo(A)
	lw	a5,-40(s0)
	slli	a5,a5,2
	add	a5,a4,a5
	lw	a4,0(a5)
	.loc 2 16 16
	lw	a5,-20(s0)
	addi	a5,a5,1
	.loc 2 16 14
	lui	a3,%hi(A)
	addi	a3,a3,%lo(A)
	slli	a5,a5,2
	add	a5,a3,a5
	lw	a5,0(a5)
	.loc 2 16 4
	bge	a4,a5,.L7
	.loc 2 17 13
	lw	a5,-20(s0)
	addi	a5,a5,1
	.loc 2 17 8
	lui	a4,%hi(A)
	addi	a4,a4,%lo(A)
	slli	a5,a5,2
	add	a5,a4,a5
	lw	a5,0(a5)
	sw	a5,-32(s0)
	.loc 2 18 6
	lw	a5,-20(s0)
	addi	a5,a5,1
	.loc 2 18 13
	lui	a4,%hi(A)
	addi	a3,a4,%lo(A)
	lw	a4,-40(s0)
	slli	a4,a4,2
	add	a4,a3,a4
	lw	a4,0(a4)
	.loc 2 18 10
	lui	a3,%hi(A)
	addi	a3,a3,%lo(A)
	slli	a5,a5,2
	add	a5,a3,a5
	sw	a4,0(a5)
	.loc 2 19 9
	lui	a5,%hi(A)
	addi	a4,a5,%lo(A)
	lw	a5,-40(s0)
	slli	a5,a5,2
	add	a5,a4,a5
	lw	a4,-32(s0)
	sw	a4,0(a5)
.L7:
	.loc 2 21 10
	lw	a5,-20(s0)
	addi	a5,a5,1
	.loc 2 22 1
	mv	a0,a5
	lw	s0,44(sp)
	.cfi_restore 8
	.cfi_def_cfa 2, 48
	addi	sp,sp,48
	.cfi_def_cfa_offset 0
	jr	ra
	.cfi_endproc
.LFE316:
	.size	partition, .-partition
	.align	2
	.globl	sort
	.type	sort, @function
sort:
.LFB317:
	.loc 2 24 72
	.cfi_startproc
	addi	sp,sp,-48
	.cfi_def_cfa_offset 48
	sw	ra,44(sp)
	sw	s0,40(sp)
	.cfi_offset 1, -4
	.cfi_offset 8, -8
	addi	s0,sp,48
	.cfi_def_cfa 8, 0
	sw	a0,-36(s0)
	sw	a1,-40(s0)
	.loc 2 25 4
	lw	a4,-36(s0)
	lw	a5,-40(s0)
	bge	a4,a5,.L12
.LBB2:
	.loc 2 26 4
	li	a5,637534208
	addi	a5,a5,12
	.loc 2 26 37
	li	a4,-1416560640
	sw	a4,0(a5)
	.loc 2 27 11
	lw	a1,-40(s0)
	lw	a0,-36(s0)
	call	partition
	sw	a0,-20(s0)
	.loc 2 28 3
	lw	a5,-20(s0)
	addi	a5,a5,-1
	mv	a1,a5
	lw	a0,-36(s0)
	call	sort
	.loc 2 29 3
	lw	a5,-20(s0)
	addi	a5,a5,1
	lw	a1,-40(s0)
	mv	a0,a5
	call	sort
.LBE2:
	.loc 2 31 2
	nop
.L12:
	nop
	.loc 2 32 1
	lw	ra,44(sp)
	.cfi_restore 1
	lw	s0,40(sp)
	.cfi_restore 8
	.cfi_def_cfa 2, 48
	addi	sp,sp,48
	.cfi_def_cfa_offset 0
	jr	ra
	.cfi_endproc
.LFE317:
	.size	sort, .-sort
	.align	2
	.globl	qsort
	.type	qsort, @function
qsort:
.LFB318:
	.loc 2 34 58
	.cfi_startproc
	addi	sp,sp,-16
	.cfi_def_cfa_offset 16
	sw	ra,12(sp)
	sw	s0,8(sp)
	.cfi_offset 1, -4
	.cfi_offset 8, -8
	addi	s0,sp,16
	.cfi_def_cfa 8, 0
	.loc 2 35 2
	li	a1,9
	li	a0,0
	call	sort
	.loc 2 36 9
	lui	a5,%hi(A)
	addi	a5,a5,%lo(A)
	.loc 2 37 1
	mv	a0,a5
	lw	ra,12(sp)
	.cfi_restore 1
	lw	s0,8(sp)
	.cfi_restore 8
	.cfi_def_cfa 2, 16
	addi	sp,sp,16
	.cfi_def_cfa_offset 0
	jr	ra
	.cfi_endproc
.LFE318:
	.size	qsort, .-qsort
	.text
.Letext0:
	.file 3 "qsort.h"
	.file 4 "/opt/riscv/lib/gcc/riscv32-unknown-elf/12.1.0/include/stdint-gcc.h"